; Function Attrs: mustprogress uwtable
define noundef i64 @_ZNK6casadi8Function4sz_wEv(ptr noundef nonnull align 8 dereferenceable(8) %0) local_unnamed_addr #4 align 2 {
  %2 = tail call noundef ptr @_ZNK6casadi8FunctionptEv(ptr noundef nonnull align 8 dereferenceable(8) %0)
  %3 = getelementptr inbounds nuw i8, ptr %2, i64 1272
  %4 = load i64, ptr %3, align 8, !tbaa !322
  %5 = getelementptr inbounds nuw i8, ptr %2, i64 1304
  %6 = load i64, ptr %5, align 8, !tbaa !323
  %7 = add i64 %6, %4
  ret i64 %7
}